target datalayout = "e-m:e-p270:32:32-p271:32:32-p272:64:64-i64:64-i128:128-f80:128-n8:16:32:64-S128"
target triple = "x86_64-pc-linux-gnu"

; Function Attrs: nounwind uwtable
define internal void @decode_predictor_coeffs(ptr noundef %0, ptr noundef %1) #1 {
  %3 = alloca ptr, align 8
  %4 = alloca ptr, align 8
  %5 = alloca [10 x double], align 16
  %6 = alloca [6 x float], align 16
  %7 = alloca [6 x float], align 16
  %8 = alloca [5 x float], align 16
  %9 = alloca [5 x float], align 16
  %10 = alloca [5 x float], align 16
  %11 = alloca [5 x float], align 16
  %12 = alloca i32, align 4
  %13 = alloca i32, align 4
  store ptr %0, ptr %3, align 8, !tbaa !68
  store ptr %1, ptr %4, align 8, !tbaa !68
  call void @llvm.lifetime.start.p0(i64 80, ptr %5) #9
  call void @llvm.lifetime.start.p0(i64 24, ptr %6) #9
  call void @llvm.lifetime.start.p0(i64 24, ptr %7) #9
  call void @llvm.lifetime.start.p0(i64 20, ptr %8) #9
  call void @llvm.memset.p0.i64(ptr align 16 %8, i8 0, i64 20, i1 false)
  call void @llvm.lifetime.start.p0(i64 20, ptr %9) #9
  call void @llvm.memset.p0.i64(ptr align 16 %9, i8 0, i64 20, i1 false)
  call void @llvm.lifetime.start.p0(i64 20, ptr %10) #9
  call void @llvm.memset.p0.i64(ptr align 16 %10, i8 0, i64 20, i1 false)
  call void @llvm.lifetime.start.p0(i64 20, ptr %11) #9
  call void @llvm.memset.p0.i64(ptr align 16 %11, i8 0, i64 20, i1 false)
  call void @llvm.lifetime.start.p0(i64 4, ptr %12) #9
  call void @llvm.lifetime.start.p0(i64 4, ptr %13) #9
  %14 = getelementptr inbounds [10 x double], ptr %5, i64 0, i64 0
  %15 = load ptr, ptr %3, align 8, !tbaa !68
  call void @ff_acelp_lsf2lspd(ptr noundef %14, ptr noundef %15, i32 noundef 10)
  store i32 0, ptr %13, align 4, !tbaa !31
  br label %16

16:                                               ; preds = %148, %2
  %17 = load i32, ptr %13, align 4, !tbaa !31
  %18 = icmp sle i32 %17, 10
  br i1 %18, label %19, label %151

19:                                               ; preds = %16
  %20 = load i32, ptr %13, align 4, !tbaa !31
  %21 = icmp slt i32 %20, 2
  %22 = select nsz i1 %21, double 2.500000e-01, double 0.000000e+00
  %23 = fptrunc nsz double %22 to float
  %24 = getelementptr inbounds [6 x float], ptr %6, i64 0, i64 0
  store float %23, ptr %24, align 16, !tbaa !32
  %25 = load i32, ptr %13, align 4, !tbaa !31
  %26 = icmp slt i32 %25, 2
  br i1 %26, label %27, label %31

27:                                               ; preds = %19
  %28 = load i32, ptr %13, align 4, !tbaa !31
  %29 = icmp slt i32 %28, 1
  %30 = select nsz i1 %29, double 2.500000e-01, double -2.500000e-01
  br label %32

31:                                               ; preds = %19
  br label %32

32:                                               ; preds = %31, %27
  %33 = phi nsz double [ %30, %27 ], [ 0.000000e+00, %31 ]
  %34 = fptrunc nsz double %33 to float
  %35 = getelementptr inbounds [6 x float], ptr %7, i64 0, i64 0
  store float %34, ptr %35, align 16, !tbaa !32
  store i32 0, ptr %12, align 4, !tbaa !31
  br label %36

36:                                               ; preds = %127, %32
  %37 = load i32, ptr %12, align 4, !tbaa !31
  %38 = icmp slt i32 %37, 5
  br i1 %38, label %39, label %130

39:                                               ; preds = %36
  %40 = load i32, ptr %12, align 4, !tbaa !31
  %41 = sext i32 %40 to i64
  %42 = getelementptr inbounds [6 x float], ptr %6, i64 0, i64 %41
  %43 = load float, ptr %42, align 4, !tbaa !32
  %44 = fpext nsz float %43 to double
  %45 = load i32, ptr %12, align 4, !tbaa !31
  %46 = mul nsw i32 %45, 2
  %47 = sext i32 %46 to i64
  %48 = getelementptr inbounds [10 x double], ptr %5, i64 0, i64 %47
  %49 = load double, ptr %48, align 8, !tbaa !108
  %50 = fmul nsz double 2.000000e+00, %49
  %51 = load i32, ptr %12, align 4, !tbaa !31
  %52 = sext i32 %51 to i64
  %53 = getelementptr inbounds [5 x float], ptr %8, i64 0, i64 %52
  %54 = load float, ptr %53, align 4, !tbaa !32
  %55 = fpext nsz float %54 to double
  %56 = fneg nsz double %50
  %57 = call nsz double @llvm.fmuladd.f64(double %56, double %55, double %44)
  %58 = load i32, ptr %12, align 4, !tbaa !31
  %59 = sext i32 %58 to i64
  %60 = getelementptr inbounds [5 x float], ptr %9, i64 0, i64 %59
  %61 = load float, ptr %60, align 4, !tbaa !32
  %62 = fpext nsz float %61 to double
  %63 = fadd nsz double %57, %62
  %64 = fptrunc nsz double %63 to float
  %65 = load i32, ptr %12, align 4, !tbaa !31
  %66 = add nsw i32 %65, 1
  %67 = sext i32 %66 to i64
  %68 = getelementptr inbounds [6 x float], ptr %6, i64 0, i64 %67
  store float %64, ptr %68, align 4, !tbaa !32
  %69 = load i32, ptr %12, align 4, !tbaa !31
  %70 = sext i32 %69 to i64
  %71 = getelementptr inbounds [6 x float], ptr %7, i64 0, i64 %70
  %72 = load float, ptr %71, align 4, !tbaa !32
  %73 = fpext nsz float %72 to double
  %74 = load i32, ptr %12, align 4, !tbaa !31
  %75 = mul nsw i32 %74, 2
  %76 = add nsw i32 %75, 1
  %77 = sext i32 %76 to i64
  %78 = getelementptr inbounds [10 x double], ptr %5, i64 0, i64 %77
  %79 = load double, ptr %78, align 8, !tbaa !108
  %80 = fmul nsz double 2.000000e+00, %79
  %81 = load i32, ptr %12, align 4, !tbaa !31
  %82 = sext i32 %81 to i64
  %83 = getelementptr inbounds [5 x float], ptr %10, i64 0, i64 %82
  %84 = load float, ptr %83, align 4, !tbaa !32
  %85 = fpext nsz float %84 to double
  %86 = fneg nsz double %80
  %87 = call nsz double @llvm.fmuladd.f64(double %86, double %85, double %73)
  %88 = load i32, ptr %12, align 4, !tbaa !31
  %89 = sext i32 %88 to i64
  %90 = getelementptr inbounds [5 x float], ptr %11, i64 0, i64 %89
  %91 = load float, ptr %90, align 4, !tbaa !32
  %92 = fpext nsz float %91 to double
  %93 = fadd nsz double %87, %92
  %94 = fptrunc nsz double %93 to float
  %95 = load i32, ptr %12, align 4, !tbaa !31
  %96 = add nsw i32 %95, 1
  %97 = sext i32 %96 to i64
  %98 = getelementptr inbounds [6 x float], ptr %7, i64 0, i64 %97
  store float %94, ptr %98, align 4, !tbaa !32
  %99 = load i32, ptr %12, align 4, !tbaa !31
  %100 = sext i32 %99 to i64
  %101 = getelementptr inbounds [5 x float], ptr %8, i64 0, i64 %100
  %102 = load float, ptr %101, align 4, !tbaa !32
  %103 = load i32, ptr %12, align 4, !tbaa !31
  %104 = sext i32 %103 to i64
  %105 = getelementptr inbounds [5 x float], ptr %9, i64 0, i64 %104
  store float %102, ptr %105, align 4, !tbaa !32
  %106 = load i32, ptr %12, align 4, !tbaa !31
  %107 = sext i32 %106 to i64
  %108 = getelementptr inbounds [6 x float], ptr %6, i64 0, i64 %107
  %109 = load float, ptr %108, align 4, !tbaa !32
  %110 = load i32, ptr %12, align 4, !tbaa !31
  %111 = sext i32 %110 to i64
  %112 = getelementptr inbounds [5 x float], ptr %8, i64 0, i64 %111
  store float %109, ptr %112, align 4, !tbaa !32
  %113 = load i32, ptr %12, align 4, !tbaa !31
  %114 = sext i32 %113 to i64
  %115 = getelementptr inbounds [5 x float], ptr %10, i64 0, i64 %114
  %116 = load float, ptr %115, align 4, !tbaa !32
  %117 = load i32, ptr %12, align 4, !tbaa !31
  %118 = sext i32 %117 to i64
  %119 = getelementptr inbounds [5 x float], ptr %11, i64 0, i64 %118
  store float %116, ptr %119, align 4, !tbaa !32
  %120 = load i32, ptr %12, align 4, !tbaa !31
  %121 = sext i32 %120 to i64
  %122 = getelementptr inbounds [6 x float], ptr %7, i64 0, i64 %121
  %123 = load float, ptr %122, align 4, !tbaa !32
  %124 = load i32, ptr %12, align 4, !tbaa !31
  %125 = sext i32 %124 to i64
  %126 = getelementptr inbounds [5 x float], ptr %10, i64 0, i64 %125
  store float %123, ptr %126, align 4, !tbaa !32
  br label %127

127:                                              ; preds = %39
  %128 = load i32, ptr %12, align 4, !tbaa !31
  %129 = add nsw i32 %128, 1
  store i32 %129, ptr %12, align 4, !tbaa !31
  br label %36, !llvm.loop !110

130:                                              ; preds = %36
  %131 = load i32, ptr %13, align 4, !tbaa !31
  %132 = icmp ne i32 %131, 0
  br i1 %132, label %133, label %147

133:                                              ; preds = %130
  %134 = getelementptr inbounds [6 x float], ptr %6, i64 0, i64 5
  %135 = load float, ptr %134, align 4, !tbaa !32
  %136 = getelementptr inbounds [6 x float], ptr %7, i64 0, i64 5
  %137 = load float, ptr %136, align 4, !tbaa !32
  %138 = fadd nsz float %135, %137
  %139 = fpext nsz float %138 to double
  %140 = fmul nsz double 2.000000e+00, %139
  %141 = fptrunc nsz double %140 to float
  %142 = load ptr, ptr %4, align 8, !tbaa !68
  %143 = load i32, ptr %13, align 4, !tbaa !31
  %144 = sub nsw i32 %143, 1
  %145 = sext i32 %144 to i64
  %146 = getelementptr inbounds float, ptr %142, i64 %145
  store float %141, ptr %146, align 4, !tbaa !32
  br label %147

147:                                              ; preds = %133, %130
  br label %148

148:                                              ; preds = %147
  %149 = load i32, ptr %13, align 4, !tbaa !31
  %150 = add nsw i32 %149, 1
  store i32 %150, ptr %13, align 4, !tbaa !31
  br label %16, !llvm.loop !111

151:                                              ; preds = %16
  call void @llvm.lifetime.end.p0(i64 4, ptr %13) #9
  call void @llvm.lifetime.end.p0(i64 4, ptr %12) #9
  call void @llvm.lifetime.end.p0(i64 20, ptr %11) #9
  call void @llvm.lifetime.end.p0(i64 20, ptr %10) #9
  call void @llvm.lifetime.end.p0(i64 20, ptr %9) #9
  call void @llvm.lifetime.end.p0(i64 20, ptr %8) #9
  call void @llvm.lifetime.end.p0(i64 24, ptr %7) #9
  call void @llvm.lifetime.end.p0(i64 24, ptr %6) #9
  call void @llvm.lifetime.end.p0(i64 80, ptr %5) #9
  ret void
}