; Function Attrs: nounwind uwtable
define internal fastcc void @decode_predictor_coeffs(ptr noundef nonnull %0, ptr noundef nonnull writeonly captures(none) %1) unnamed_addr #1 {
  %3 = alloca [10 x double], align 16
  %4 = alloca [6 x float], align 16
  %5 = alloca [6 x float], align 16
  %6 = alloca [5 x float], align 16
  %7 = alloca [5 x float], align 16
  %8 = alloca [5 x float], align 16
  %9 = alloca [5 x float], align 16
  call void @llvm.lifetime.start.p0(i64 80, ptr nonnull %3) #9
  call void @llvm.lifetime.start.p0(i64 24, ptr nonnull %4) #9
  call void @llvm.lifetime.start.p0(i64 24, ptr nonnull %5) #9
  call void @llvm.lifetime.start.p0(i64 20, ptr nonnull %6) #9
  call void @llvm.memset.p0.i64(ptr noundef nonnull align 16 dereferenceable(20) %6, i8 0, i64 20, i1 false)
  call void @llvm.lifetime.start.p0(i64 20, ptr nonnull %7) #9
  call void @llvm.memset.p0.i64(ptr noundef nonnull align 16 dereferenceable(20) %7, i8 0, i64 20, i1 false)
  call void @llvm.lifetime.start.p0(i64 20, ptr nonnull %8) #9
  call void @llvm.memset.p0.i64(ptr noundef nonnull align 16 dereferenceable(20) %8, i8 0, i64 20, i1 false)
  call void @llvm.lifetime.start.p0(i64 20, ptr nonnull %9) #9
  call void @llvm.memset.p0.i64(ptr noundef nonnull align 16 dereferenceable(20) %9, i8 0, i64 20, i1 false)
  call void @ff_acelp_lsf2lspd(ptr noundef nonnull %3, ptr noundef nonnull %0, i32 noundef 10) #9
  %invariant.gep = getelementptr i8, ptr %1, i64 -4
  %10 = getelementptr inbounds nuw i8, ptr %4, i64 20
  %11 = getelementptr inbounds nuw i8, ptr %5, i64 20
  br label %12

12:                                               ; preds = %2, %57
  %indvars.iv32 = phi i64 [ 0, %2 ], [ %indvars.iv.next33, %57 ]
  %13 = icmp samesign ult i64 %indvars.iv32, 2
  %14 = select i1 %13, float 2.500000e-01, float 0.000000e+00
  %15 = icmp eq i64 %indvars.iv32, 0
  %16 = select i1 %15, float 2.500000e-01, float -2.500000e-01
  %17 = select i1 %13, float %16, float 0.000000e+00
  br label %18

18:                                               ; preds = %12, %18
  %19 = phi float [ %17, %12 ], [ %49, %18 ]
  %20 = phi float [ %14, %12 ], [ %34, %18 ]
  %indvars.iv = phi i64 [ 0, %12 ], [ %indvars.iv.next, %18 ]
  %21 = fpext nsz float %20 to double
  %22 = shl nuw nsw i64 %indvars.iv, 1
  %23 = getelementptr inbounds nuw [10 x double], ptr %3, i64 0, i64 %22
  %24 = load double, ptr %23, align 16, !tbaa !109
  %25 = getelementptr inbounds nuw [5 x float], ptr %6, i64 0, i64 %indvars.iv
  %26 = load float, ptr %25, align 4, !tbaa !31
  %27 = fpext nsz float %26 to double
  %28 = fmul nsz double %24, -2.000000e+00
  %29 = call nsz double @llvm.fmuladd.f64(double %28, double %27, double %21)
  %30 = getelementptr inbounds nuw [5 x float], ptr %7, i64 0, i64 %indvars.iv
  %31 = load float, ptr %30, align 4, !tbaa !31
  %32 = fpext nsz float %31 to double
  %33 = fadd nsz double %29, %32
  %34 = fptrunc nsz double %33 to float
  %indvars.iv.next = add nuw nsw i64 %indvars.iv, 1
  %35 = getelementptr inbounds nuw [6 x float], ptr %4, i64 0, i64 %indvars.iv.next
  store float %34, ptr %35, align 4, !tbaa !31
  %36 = fpext nsz float %19 to double
  %37 = or disjoint i64 %22, 1
  %38 = getelementptr inbounds nuw [10 x double], ptr %3, i64 0, i64 %37
  %39 = load double, ptr %38, align 8, !tbaa !109
  %40 = getelementptr inbounds nuw [5 x float], ptr %8, i64 0, i64 %indvars.iv
  %41 = load float, ptr %40, align 4, !tbaa !31
  %42 = fpext nsz float %41 to double
  %43 = fmul nsz double %39, -2.000000e+00
  %44 = call nsz double @llvm.fmuladd.f64(double %43, double %42, double %36)
  %45 = getelementptr inbounds nuw [5 x float], ptr %9, i64 0, i64 %indvars.iv
  %46 = load float, ptr %45, align 4, !tbaa !31
  %47 = fpext nsz float %46 to double
  %48 = fadd nsz double %44, %47
  %49 = fptrunc nsz double %48 to float
  %50 = getelementptr inbounds nuw [6 x float], ptr %5, i64 0, i64 %indvars.iv.next
  store float %49, ptr %50, align 4, !tbaa !31
  store float %26, ptr %30, align 4, !tbaa !31
  store float %20, ptr %25, align 4, !tbaa !31
  store float %41, ptr %45, align 4, !tbaa !31
  store float %19, ptr %40, align 4, !tbaa !31
  %exitcond.not = icmp eq i64 %indvars.iv.next, 5
  br i1 %exitcond.not, label %51, label %18, !llvm.loop !111

51:                                               ; preds = %18
  br i1 %15, label %57, label %52

52:                                               ; preds = %51
  %53 = load float, ptr %10, align 4, !tbaa !31
  %54 = load float, ptr %11, align 4, !tbaa !31
  %55 = fadd nsz float %53, %54
  %56 = fmul nsz float %55, 2.000000e+00
  %gep = getelementptr float, ptr %invariant.gep, i64 %indvars.iv32
  store float %56, ptr %gep, align 4, !tbaa !31
  br label %57

57:                                               ; preds = %51, %52
  %indvars.iv.next33 = add nuw nsw i64 %indvars.iv32, 1
  %exitcond35.not = icmp eq i64 %indvars.iv.next33, 11
  br i1 %exitcond35.not, label %58, label %12, !llvm.loop !112

58:                                               ; preds = %57
  call void @llvm.lifetime.end.p0(i64 20, ptr nonnull %9) #9
  call void @llvm.lifetime.end.p0(i64 20, ptr nonnull %8) #9
  call void @llvm.lifetime.end.p0(i64 20, ptr nonnull %7) #9
  call void @llvm.lifetime.end.p0(i64 20, ptr nonnull %6) #9
  call void @llvm.lifetime.end.p0(i64 24, ptr nonnull %5) #9
  call void @llvm.lifetime.end.p0(i64 24, ptr nonnull %4) #9
  call void @llvm.lifetime.end.p0(i64 80, ptr nonnull %3) #9
  ret void
}